target datalayout = "e-m:e-p270:32:32-p271:32:32-p272:64:64-i64:64-i128:128-f80:128-n8:16:32:64-S128"
target triple = "x86_64-unknown-linux-gnu"

%class.trail = type { ptr }
%class.value_trail.349 = type { %class.trail, ptr, ptr }

; Function Attrs: mustprogress nounwind uwtable
define internal void @_ZN11value_trailIPN12_GLOBAL__N_111instructionEE4undoEv(ptr noundef nonnull align 8 dereferenceable(24) %this) unnamed_addr #4 align 2 {
entry:
  %this.addr = alloca ptr, align 8
  store ptr %this, ptr %this.addr, align 8
  %this1 = load ptr, ptr %this.addr, align 8
  %m_old_value = getelementptr inbounds %class.value_trail.349, ptr %this1, i32 0, i32 2
  %0 = load ptr, ptr %m_old_value, align 8
  %m_value = getelementptr inbounds %class.value_trail.349, ptr %this1, i32 0, i32 1
  %1 = load ptr, ptr %m_value, align 8
  store ptr %0, ptr %1, align 8
  ret void
}