; Function Attrs: mustprogress nofree norecurse nosync nounwind willreturn memory(write, argmem: readwrite, inaccessiblemem: none) uwtable
define internal void @_ZN11value_trailIPN12_GLOBAL__N_111instructionEE4undoEv(ptr nocapture noundef nonnull readonly align 8 dereferenceable(24) %this) unnamed_addr #13 align 2 {
entry:
  %m_old_value = getelementptr inbounds i8, ptr %this, i64 16
  %0 = load ptr, ptr %m_old_value, align 8
  %m_value = getelementptr inbounds i8, ptr %this, i64 8
  %1 = load ptr, ptr %m_value, align 8
  store ptr %0, ptr %1, align 8
  ret void
}